; Function Attrs: nounwind uwtable
define hidden zeroext range(i8 0, 2) i8 @isUnchecked(ptr noundef %0, ptr noundef %1) local_unnamed_addr #1 {
  %3 = load ptr, ptr %0, align 8
  %4 = getelementptr inbounds i8, ptr %3, i64 1824
  %5 = load ptr, ptr %4, align 8
  %6 = tail call zeroext i8 %5(ptr noundef nonnull %0) #3
  %.not.i = icmp eq i8 %6, 0
  %7 = zext i1 %.not.i to i8
  tail call void @JPLISAssertCondition(i8 noundef zeroext %7, ptr noundef nonnull @.str, ptr noundef nonnull @.str.1, i32 noundef 323) #3
  %8 = icmp eq ptr %1, null
  br i1 %8, label %15, label %9

9:                                                ; preds = %2
  %10 = tail call zeroext i8 @isInstanceofClassName(ptr noundef nonnull %0, ptr noundef nonnull %1, ptr noundef nonnull @.str.32) #3
  %.not = icmp eq i8 %10, 0
  br i1 %.not, label %11, label %15

11:                                               ; preds = %9
  %12 = tail call zeroext i8 @isInstanceofClassName(ptr noundef nonnull %0, ptr noundef nonnull %1, ptr noundef nonnull @.str.33) #3
  %13 = icmp ne i8 %12, 0
  %14 = zext i1 %13 to i8
  br label %15

15:                                               ; preds = %11, %9, %2
  %16 = phi i8 [ 1, %9 ], [ 1, %2 ], [ %14, %11 ]
  %17 = load ptr, ptr %0, align 8
  %18 = getelementptr inbounds i8, ptr %17, i64 1824
  %19 = load ptr, ptr %18, align 8
  %20 = tail call zeroext i8 %19(ptr noundef nonnull %0) #3
  %.not.i7 = icmp eq i8 %20, 0
  %21 = zext i1 %.not.i7 to i8
  tail call void @JPLISAssertCondition(i8 noundef zeroext %21, ptr noundef nonnull @.str, ptr noundef nonnull @.str.1, i32 noundef 327) #3
  ret i8 %16
}